; Function Attrs: mustprogress nounwind uwtable
define void @_ZN12RichFileOpenD2Ev(ptr noundef nonnull align 8 dereferenceable(64) %0) unnamed_addr #0 align 2 personality ptr @__gxx_personality_v0 {
  store ptr getelementptr inbounds ({ [8 x ptr] }, ptr @_ZTV12RichFileOpen, i64 0, i32 0, i64 2), ptr %0, align 8
  %2 = getelementptr inbounds i8, ptr %0, i64 56
  %3 = load ptr, ptr %2, align 8
  %4 = load atomic i32, ptr %3 monotonic, align 4
  switch i32 %4, label %_ZN9QtPrivate8RefCount5derefEv.exit.i.i [
    i32 0, label %_ZN9QtPrivate8RefCount5derefEv.exit.thread2.i.i
    i32 -1, label %_ZN11QStringListD2Ev.exit
  ]

_ZN9QtPrivate8RefCount5derefEv.exit.i.i:          ; preds = %1
  %5 = atomicrmw sub ptr %3, i32 1 seq_cst, align 4
  %.not.i.i = icmp eq i32 %5, 1
  br i1 %.not.i.i, label %_ZN9QtPrivate8RefCount5derefEv.exit._ZN9QtPrivate8RefCount5derefEv.exit.thread2_crit_edge.i.i, label %_ZN11QStringListD2Ev.exit

_ZN9QtPrivate8RefCount5derefEv.exit._ZN9QtPrivate8RefCount5derefEv.exit.thread2_crit_edge.i.i: ; preds = %_ZN9QtPrivate8RefCount5derefEv.exit.i.i
  %.pre.i.i = load ptr, ptr %2, align 8
  br label %_ZN9QtPrivate8RefCount5derefEv.exit.thread2.i.i

_ZN9QtPrivate8RefCount5derefEv.exit.thread2.i.i:  ; preds = %_ZN9QtPrivate8RefCount5derefEv.exit._ZN9QtPrivate8RefCount5derefEv.exit.thread2_crit_edge.i.i, %1
  %6 = phi ptr [ %.pre.i.i, %_ZN9QtPrivate8RefCount5derefEv.exit._ZN9QtPrivate8RefCount5derefEv.exit.thread2_crit_edge.i.i ], [ %3, %1 ]
  %7 = getelementptr inbounds i8, ptr %6, i64 16
  %8 = getelementptr inbounds i8, ptr %6, i64 8
  %9 = load i32, ptr %8, align 8
  %10 = sext i32 %9 to i64
  %11 = getelementptr inbounds ptr, ptr %7, i64 %10
  %12 = getelementptr inbounds i8, ptr %6, i64 12
  %13 = load i32, ptr %12, align 4
  %.not4.i.i.i.i = icmp eq i32 %13, %9
  br i1 %.not4.i.i.i.i, label %_ZN5QListI7QStringE13node_destructEPNS1_4NodeES3_.exit.i.i.i, label %.lr.ph.i.preheader.i.i.i

.lr.ph.i.preheader.i.i.i:                         ; preds = %_ZN9QtPrivate8RefCount5derefEv.exit.thread2.i.i
  %14 = sext i32 %13 to i64
  %15 = getelementptr inbounds ptr, ptr %7, i64 %14
  br label %.lr.ph.i.i.i.i

.lr.ph.i.i.i.i:                                   ; preds = %_ZN7QStringD2Ev.exit.i.i.i.i, %.lr.ph.i.preheader.i.i.i
  %.05.i.i.i.i = phi ptr [ %16, %_ZN7QStringD2Ev.exit.i.i.i.i ], [ %15, %.lr.ph.i.preheader.i.i.i ]
  %16 = getelementptr inbounds i8, ptr %.05.i.i.i.i, i64 -8
  %17 = load ptr, ptr %16, align 8
  %18 = load atomic i32, ptr %17 monotonic, align 4
  switch i32 %18, label %_ZN9QtPrivate8RefCount5derefEv.exit.i.i.i.i.i [
    i32 0, label %_ZN9QtPrivate8RefCount5derefEv.exit.thread2.i.i.i.i.i
    i32 -1, label %_ZN7QStringD2Ev.exit.i.i.i.i
  ]

_ZN9QtPrivate8RefCount5derefEv.exit.i.i.i.i.i:    ; preds = %.lr.ph.i.i.i.i
  %19 = atomicrmw sub ptr %17, i32 1 seq_cst, align 4
  %.not.i.i.i.i.i = icmp eq i32 %19, 1
  br i1 %.not.i.i.i.i.i, label %_ZN9QtPrivate8RefCount5derefEv.exit._ZN9QtPrivate8RefCount5derefEv.exit.thread2_crit_edge.i.i.i.i.i, label %_ZN7QStringD2Ev.exit.i.i.i.i

_ZN9QtPrivate8RefCount5derefEv.exit._ZN9QtPrivate8RefCount5derefEv.exit.thread2_crit_edge.i.i.i.i.i: ; preds = %_ZN9QtPrivate8RefCount5derefEv.exit.i.i.i.i.i
  %.pre.i.i.i.i.i = load ptr, ptr %16, align 8
  br label %_ZN9QtPrivate8RefCount5derefEv.exit.thread2.i.i.i.i.i

_ZN9QtPrivate8RefCount5derefEv.exit.thread2.i.i.i.i.i: ; preds = %_ZN9QtPrivate8RefCount5derefEv.exit._ZN9QtPrivate8RefCount5derefEv.exit.thread2_crit_edge.i.i.i.i.i, %.lr.ph.i.i.i.i
  %20 = phi ptr [ %.pre.i.i.i.i.i, %_ZN9QtPrivate8RefCount5derefEv.exit._ZN9QtPrivate8RefCount5derefEv.exit.thread2_crit_edge.i.i.i.i.i ], [ %17, %.lr.ph.i.i.i.i ]
  tail call void @_ZN10QArrayData10deallocateEPS_mm(ptr noundef %20, i64 noundef 2, i64 noundef 8) #11
  br label %_ZN7QStringD2Ev.exit.i.i.i.i

_ZN7QStringD2Ev.exit.i.i.i.i:                     ; preds = %_ZN9QtPrivate8RefCount5derefEv.exit.thread2.i.i.i.i.i, %_ZN9QtPrivate8RefCount5derefEv.exit.i.i.i.i.i, %.lr.ph.i.i.i.i
  %.not.i.i.i.i = icmp eq ptr %16, %11
  br i1 %.not.i.i.i.i, label %_ZN5QListI7QStringE13node_destructEPNS1_4NodeES3_.exit.i.i.i, label %.lr.ph.i.i.i.i, !llvm.loop !11

_ZN5QListI7QStringE13node_destructEPNS1_4NodeES3_.exit.i.i.i: ; preds = %_ZN7QStringD2Ev.exit.i.i.i.i, %_ZN9QtPrivate8RefCount5derefEv.exit.thread2.i.i
  invoke void @_ZN9QListData7disposeEPNS_4DataE(ptr noundef %6)
          to label %_ZN11QStringListD2Ev.exit unwind label %21

21:                                               ; preds = %_ZN5QListI7QStringE13node_destructEPNS1_4NodeES3_.exit.i.i.i
  %22 = landingpad { ptr, i32 }
          catch ptr null
  %23 = extractvalue { ptr, i32 } %22, 0
  tail call void @__clang_call_terminate(ptr %23) #14
  unreachable

_ZN11QStringListD2Ev.exit:                        ; preds = %1, %_ZN9QtPrivate8RefCount5derefEv.exit.i.i, %_ZN5QListI7QStringE13node_destructEPNS1_4NodeES3_.exit.i.i.i
  tail call void @_ZN13RichParameterD2Ev(ptr noundef nonnull align 8 dereferenceable(56) %0) #11
  ret void
}